; Function Attrs: mustprogress nounwind uwtable
define internal noundef ptr @"_ZZN4node6crypto13DiffieHellman8GetPrimeERKN2v820FunctionCallbackInfoINS2_5ValueEEEEN3$_08__invokeEPK5dh_st"(ptr noundef %dh) #3 align 2 {
entry:
  %p.i = alloca ptr, align 8
  call void @llvm.lifetime.start.p0(i64 8, ptr nonnull %p.i)
  call void @DH_get0_pqg(ptr noundef %dh, ptr noundef nonnull %p.i, ptr noundef null, ptr noundef null) #18
  %0 = load ptr, ptr %p.i, align 8
  call void @llvm.lifetime.end.p0(i64 8, ptr nonnull %p.i)
  ret ptr %0
}